; Function Attrs: mustprogress uwtable
define void @_ZN4lean7lthread4joinEv(ptr noundef nonnull readonly align 8 captures(none) dereferenceable(8) %0) local_unnamed_addr #0 align 2 personality ptr @__gxx_personality_v0 {
  %2 = load ptr, ptr %0, align 8, !tbaa !35
  %3 = getelementptr inbounds nuw i8, ptr %2, i64 64
  store i8 1, ptr %3, align 8, !tbaa !37
  %4 = getelementptr inbounds nuw i8, ptr %2, i64 56
  %5 = load i64, ptr %4, align 8, !tbaa !47
  %6 = tail call i32 @pthread_join(i64 noundef %5, ptr noundef null)
  %.not.i = icmp eq i32 %6, 0
  br i1 %.not.i, label %_ZN4lean7lthread3imp4joinEv.exit, label %7

7:                                                ; preds = %1
  %8 = tail call ptr @__cxa_allocate_exception(i64 40) #23
  invoke void @_ZN4lean9exceptionC2EPKc(ptr noundef nonnull align 8 dereferenceable(40) %8, ptr noundef nonnull @.str.2)
          to label %9 unwind label %10

9:                                                ; preds = %7
  tail call void @__cxa_throw(ptr nonnull %8, ptr nonnull @_ZTIN4lean9exceptionE, ptr nonnull @_ZN4lean9throwableD2Ev) #22
  unreachable

10:                                               ; preds = %7
  %11 = landingpad { ptr, i32 }
          cleanup
  tail call void @__cxa_free_exception(ptr nonnull %8) #23
  resume { ptr, i32 } %11

_ZN4lean7lthread3imp4joinEv.exit:                 ; preds = %1
  ret void
}